; Function Attrs: nounwind uwtable
define hidden ptr @X509_ATTRIBUTE_create_by_OBJ(ptr noundef captures(address_is_null) %0, ptr noundef %1, i32 noundef %2, ptr noundef %3, i32 noundef %4) local_unnamed_addr #0 {
  %6 = icmp eq ptr %0, null
  br i1 %6, label %10, label %7

7:                                                ; preds = %5
  %8 = load ptr, ptr %0, align 8, !tbaa !17
  %9 = icmp eq ptr %8, null
  br i1 %9, label %10, label %14

10:                                               ; preds = %7, %5
  %11 = tail call ptr @X509_ATTRIBUTE_new() #4
  %12 = icmp eq ptr %11, null
  br i1 %12, label %13, label %14

13:                                               ; preds = %10
  tail call void @ERR_put_error(i32 noundef 11, i32 noundef 0, i32 noundef 65, ptr noundef nonnull @.str, i32 noundef 239) #4
  br label %28

14:                                               ; preds = %7, %10
  %.0 = phi ptr [ %11, %10 ], [ %8, %7 ]
  %15 = icmp eq ptr %1, null
  br i1 %15, label %X509_ATTRIBUTE_set1_object.exit.thread, label %X509_ATTRIBUTE_set1_object.exit

X509_ATTRIBUTE_set1_object.exit:                  ; preds = %14
  %16 = load ptr, ptr %.0, align 8, !tbaa !6
  tail call void @ASN1_OBJECT_free(ptr noundef %16) #4
  %17 = tail call ptr @OBJ_dup(ptr noundef nonnull %1) #4
  store ptr %17, ptr %.0, align 8, !tbaa !6
  %.not27 = icmp eq ptr %17, null
  br i1 %.not27, label %X509_ATTRIBUTE_set1_object.exit.thread, label %18

18:                                               ; preds = %X509_ATTRIBUTE_set1_object.exit
  %19 = tail call i32 @X509_ATTRIBUTE_set1_data(ptr noundef nonnull %.0, i32 noundef %2, ptr noundef %3, i32 noundef %4)
  %.not22 = icmp eq i32 %19, 0
  br i1 %.not22, label %X509_ATTRIBUTE_set1_object.exit.thread, label %20

20:                                               ; preds = %18
  br i1 %6, label %28, label %21

21:                                               ; preds = %20
  %22 = load ptr, ptr %0, align 8, !tbaa !17
  %23 = icmp eq ptr %22, null
  br i1 %23, label %24, label %28

24:                                               ; preds = %21
  store ptr %.0, ptr %0, align 8, !tbaa !17
  br label %28

X509_ATTRIBUTE_set1_object.exit.thread:           ; preds = %14, %18, %X509_ATTRIBUTE_set1_object.exit
  br i1 %6, label %27, label %25

25:                                               ; preds = %X509_ATTRIBUTE_set1_object.exit.thread
  %26 = load ptr, ptr %0, align 8, !tbaa !17
  %.not23 = icmp eq ptr %.0, %26
  br i1 %.not23, label %28, label %27

27:                                               ; preds = %25, %X509_ATTRIBUTE_set1_object.exit.thread
  tail call void @X509_ATTRIBUTE_free(ptr noundef nonnull %.0) #4
  br label %28

28:                                               ; preds = %25, %27, %20, %21, %24, %13
  %.018 = phi ptr [ null, %13 ], [ %.0, %24 ], [ %.0, %21 ], [ %.0, %20 ], [ null, %27 ], [ null, %25 ]
  ret ptr %.018
}